target datalayout = "e-m:e-p270:32:32-p271:32:32-p272:64:64-i64:64-i128:128-f80:128-n8:16:32:64-S128"
target triple = "x86_64-pc-linux-gnu"

%"class.icu_77::UnicodeString" = type { %"class.icu_77::Replaceable", %"union.icu_77::UnicodeString::StackBufferOrFields" }
%"class.icu_77::Replaceable" = type { %"class.icu_77::UObject" }
%"class.icu_77::UObject" = type { ptr }
%"union.icu_77::UnicodeString::StackBufferOrFields" = type { %struct.anon.0, [32 x i8] }
%struct.anon.0 = type { i16, i32, i32, ptr }
%"class.icu_77::TimeZoneFormat" = type { %"class.icu_77::Format", %"class.icu_77::Locale", [4 x i8], ptr, ptr, %"class.icu_77::UnicodeString", [6 x %"class.icu_77::UnicodeString"], [10 x i32], %"class.icu_77::UnicodeString", i32, %"class.icu_77::UnicodeString", %"class.icu_77::UnicodeString", [6 x ptr], i8, ptr }
%"class.icu_77::Format" = type { %"class.icu_77::UObject", ptr, ptr }
%"class.icu_77::Locale" = type <{ %"class.icu_77::UObject", [12 x i8], [6 x i8], [4 x i8], [2 x i8], i32, [4 x i8], ptr, [157 x i8], [3 x i8], ptr, i8, [7 x i8] }>

; Function Attrs: inlinehint mustprogress nounwind uwtable
define linkonce_odr noundef i32 @_ZNK6icu_7713UnicodeString14getShortLengthEv(ptr noundef nonnull align 8 dereferenceable(64) %0) #2 comdat align 2 {
  %2 = alloca ptr, align 8
  store ptr %0, ptr %2, align 8, !tbaa !33
  %3 = load ptr, ptr %2, align 8
  %4 = getelementptr inbounds nuw %"class.icu_77::UnicodeString", ptr %3, i32 0, i32 1
  %5 = getelementptr inbounds nuw %struct.anon.0, ptr %4, i32 0, i32 0
  %6 = load i16, ptr %5, align 8, !tbaa !37
  %7 = sext i16 %6 to i32
  %8 = ashr i32 %7, 5
  ret i32 %8
}

; Function Attrs: inlinehint mustprogress nounwind uwtable
define linkonce_odr noundef signext i8 @_ZNK6icu_7713UnicodeString14hasShortLengthEv(ptr noundef nonnull align 8 dereferenceable(64) %0) #2 comdat align 2 {
  %2 = alloca ptr, align 8
  store ptr %0, ptr %2, align 8, !tbaa !33
  %3 = load ptr, ptr %2, align 8
  %4 = getelementptr inbounds nuw %"class.icu_77::UnicodeString", ptr %3, i32 0, i32 1
  %5 = getelementptr inbounds nuw %struct.anon.0, ptr %4, i32 0, i32 0
  %6 = load i16, ptr %5, align 8, !tbaa !37
  %7 = sext i16 %6 to i32
  %8 = icmp sge i32 %7, 0
  %9 = zext i1 %8 to i8
  ret i8 %9
}

; Function Attrs: inlinehint mustprogress uwtable
define linkonce_odr noundef i32 @_ZNK6icu_7713UnicodeString6lengthEv(ptr noundef nonnull align 8 dereferenceable(64) %0) #3 comdat align 2 {
  %2 = alloca ptr, align 8
  store ptr %0, ptr %2, align 8, !tbaa !33
  %3 = load ptr, ptr %2, align 8
  %4 = call noundef signext i8 @_ZNK6icu_7713UnicodeString14hasShortLengthEv(ptr noundef nonnull align 8 dereferenceable(64) %3)
  %5 = icmp ne i8 %4, 0
  br i1 %5, label %6, label %8

6:                                                ; preds = %1
  %7 = call noundef i32 @_ZNK6icu_7713UnicodeString14getShortLengthEv(ptr noundef nonnull align 8 dereferenceable(64) %3)
  br label %12

8:                                                ; preds = %1
  %9 = getelementptr inbounds nuw %"class.icu_77::UnicodeString", ptr %3, i32 0, i32 1
  %10 = getelementptr inbounds nuw %struct.anon.0, ptr %9, i32 0, i32 1
  %11 = load i32, ptr %10, align 4, !tbaa !37
  br label %12

12:                                               ; preds = %8, %6
  %13 = phi i32 [ %7, %6 ], [ %11, %8 ]
  ret i32 %13
}

; Function Attrs: mustprogress uwtable
define noundef i32 @_ZNK6icu_7714TimeZoneFormat25parseSingleLocalizedDigitERKNS_13UnicodeStringEiRi(ptr noundef nonnull align 8 dereferenceable(1024) %0, ptr noundef nonnull align 8 dereferenceable(64) %1, i32 noundef %2, ptr noundef nonnull align 4 dereferenceable(4) %3) #1 align 2 {
  %5 = alloca ptr, align 8
  %6 = alloca ptr, align 8
  %7 = alloca i32, align 4
  %8 = alloca ptr, align 8
  %9 = alloca i32, align 4
  %10 = alloca i32, align 4
  %11 = alloca i32, align 4
  %12 = alloca i32, align 4
  %13 = alloca i32, align 4
  %14 = alloca i32, align 4
  store ptr %0, ptr %5, align 8, !tbaa !39
  store ptr %1, ptr %6, align 8, !tbaa !33
  store i32 %2, ptr %7, align 4, !tbaa !14
  store ptr %3, ptr %8, align 8, !tbaa !20
  %15 = load ptr, ptr %5, align 8
  call void @llvm.lifetime.start.p0(i64 4, ptr %9) #15
  store i32 -1, ptr %9, align 4, !tbaa !14
  %16 = load ptr, ptr %8, align 8, !tbaa !20
  store i32 0, ptr %16, align 4, !tbaa !14
  %17 = load i32, ptr %7, align 4, !tbaa !14
  %18 = load ptr, ptr %6, align 8, !tbaa !33
  %19 = call noundef i32 @_ZNK6icu_7713UnicodeString6lengthEv(ptr noundef nonnull align 8 dereferenceable(64) %18)
  %20 = icmp slt i32 %17, %19
  br i1 %20, label %21, label %72

21:                                               ; preds = %4
  call void @llvm.lifetime.start.p0(i64 4, ptr %10) #15
  %22 = load ptr, ptr %6, align 8, !tbaa !33
  %23 = load i32, ptr %7, align 4, !tbaa !14
  %24 = call noundef i32 @_ZNK6icu_7713UnicodeString8char32AtEi(ptr noundef nonnull align 8 dereferenceable(64) %22, i32 noundef %23)
  store i32 %24, ptr %10, align 4, !tbaa !14
  call void @llvm.lifetime.start.p0(i64 4, ptr %11) #15
  store i32 0, ptr %11, align 4, !tbaa !14
  br label %25

25:                                               ; preds = %40, %21
  %26 = load i32, ptr %11, align 4, !tbaa !14
  %27 = icmp slt i32 %26, 10
  br i1 %27, label %29, label %28

28:                                               ; preds = %25
  store i32 2, ptr %12, align 4
  br label %43

29:                                               ; preds = %25
  %30 = load i32, ptr %10, align 4, !tbaa !14
  %31 = getelementptr inbounds nuw %"class.icu_77::TimeZoneFormat", ptr %15, i32 0, i32 7
  %32 = load i32, ptr %11, align 4, !tbaa !14
  %33 = sext i32 %32 to i64
  %34 = getelementptr inbounds [10 x i32], ptr %31, i64 0, i64 %33
  %35 = load i32, ptr %34, align 4, !tbaa !14
  %36 = icmp eq i32 %30, %35
  br i1 %36, label %37, label %39

37:                                               ; preds = %29
  %38 = load i32, ptr %11, align 4, !tbaa !14
  store i32 %38, ptr %9, align 4, !tbaa !14
  store i32 2, ptr %12, align 4
  br label %43

39:                                               ; preds = %29
  br label %40

40:                                               ; preds = %39
  %41 = load i32, ptr %11, align 4, !tbaa !14
  %42 = add nsw i32 %41, 1
  store i32 %42, ptr %11, align 4, !tbaa !14
  br label %25, !llvm.loop !162

43:                                               ; preds = %37, %28
  call void @llvm.lifetime.end.p0(i64 4, ptr %11) #15
  br label %44

44:                                               ; preds = %43
  %45 = load i32, ptr %9, align 4, !tbaa !14
  %46 = icmp slt i32 %45, 0
  br i1 %46, label %47, label %60

47:                                               ; preds = %44
  call void @llvm.lifetime.start.p0(i64 4, ptr %13) #15
  %48 = load i32, ptr %10, align 4, !tbaa !14
  %49 = call i32 @u_charDigitValue_77(i32 noundef %48)
  store i32 %49, ptr %13, align 4, !tbaa !14
  %50 = load i32, ptr %13, align 4, !tbaa !14
  %51 = icmp sge i32 %50, 0
  br i1 %51, label %52, label %57

52:                                               ; preds = %47
  %53 = load i32, ptr %13, align 4, !tbaa !14
  %54 = icmp sle i32 %53, 9
  br i1 %54, label %55, label %57

55:                                               ; preds = %52
  %56 = load i32, ptr %13, align 4, !tbaa !14
  br label %58

57:                                               ; preds = %52, %47
  br label %58

58:                                               ; preds = %57, %55
  %59 = phi i32 [ %56, %55 ], [ -1, %57 ]
  store i32 %59, ptr %9, align 4, !tbaa !14
  call void @llvm.lifetime.end.p0(i64 4, ptr %13) #15
  br label %60

60:                                               ; preds = %58, %44
  %61 = load i32, ptr %9, align 4, !tbaa !14
  %62 = icmp sge i32 %61, 0
  br i1 %62, label %63, label %71

63:                                               ; preds = %60
  call void @llvm.lifetime.start.p0(i64 4, ptr %14) #15
  %64 = load ptr, ptr %6, align 8, !tbaa !33
  %65 = load i32, ptr %7, align 4, !tbaa !14
  %66 = call noundef i32 @_ZNK6icu_7713UnicodeString11moveIndex32Eii(ptr noundef nonnull align 8 dereferenceable(64) %64, i32 noundef %65, i32 noundef 1)
  store i32 %66, ptr %14, align 4, !tbaa !14
  %67 = load i32, ptr %14, align 4, !tbaa !14
  %68 = load i32, ptr %7, align 4, !tbaa !14
  %69 = sub nsw i32 %67, %68
  %70 = load ptr, ptr %8, align 8, !tbaa !20
  store i32 %69, ptr %70, align 4, !tbaa !14
  call void @llvm.lifetime.end.p0(i64 4, ptr %14) #15
  br label %71

71:                                               ; preds = %63, %60
  call void @llvm.lifetime.end.p0(i64 4, ptr %10) #15
  br label %72

72:                                               ; preds = %71, %4
  %73 = load i32, ptr %9, align 4, !tbaa !14
  store i32 1, ptr %12, align 4
  call void @llvm.lifetime.end.p0(i64 4, ptr %9) #15
  ret i32 %73
}