; Function Attrs: mustprogress uwtable
define noundef range(i32 -1, 10) i32 @_ZNK6icu_7714TimeZoneFormat25parseSingleLocalizedDigitERKNS_13UnicodeStringEiRi(ptr noundef nonnull readonly align 8 captures(none) dereferenceable(1024) %0, ptr noundef nonnull align 8 dereferenceable(64) %1, i32 noundef %2, ptr noundef nonnull writeonly align 4 captures(none) dereferenceable(4) initializes((0, 4)) %3) local_unnamed_addr #1 align 2 {
  store i32 0, ptr %3, align 4, !tbaa !12
  %5 = getelementptr inbounds nuw i8, ptr %1, i64 8
  %6 = load i16, ptr %5, align 8, !tbaa !23
  %7 = icmp slt i16 %6, 0
  %8 = ashr i16 %6, 5
  %9 = sext i16 %8 to i32
  %10 = getelementptr inbounds nuw i8, ptr %1, i64 12
  %11 = load i32, ptr %10, align 4
  %12 = select i1 %7, i32 %11, i32 %9
  %13 = icmp slt i32 %2, %12
  br i1 %13, label %14, label %27

14:                                               ; preds = %4
  %15 = tail call noundef i32 @_ZNK6icu_7713UnicodeString8char32AtEi(ptr noundef nonnull align 8 dereferenceable(64) %1, i32 noundef %2)
  %16 = getelementptr inbounds nuw i8, ptr %0, i64 720
  br label %17

17:                                               ; preds = %14, %21
  %indvars.iv = phi i64 [ 0, %14 ], [ %indvars.iv.next, %21 ]
  %18 = getelementptr inbounds nuw [10 x i32], ptr %16, i64 0, i64 %indvars.iv
  %19 = load i32, ptr %18, align 4, !tbaa !12
  %20 = icmp eq i32 %15, %19
  br i1 %20, label %select.unfold.loopexit, label %21

21:                                               ; preds = %17
  %indvars.iv.next = add nuw nsw i64 %indvars.iv, 1
  %exitcond.not = icmp eq i64 %indvars.iv.next, 10
  br i1 %exitcond.not, label %22, label %17, !llvm.loop !100

22:                                               ; preds = %21
  %23 = tail call i32 @u_charDigitValue_77(i32 noundef %15)
  %or.cond = icmp ult i32 %23, 10
  br i1 %or.cond, label %select.unfold, label %27

select.unfold.loopexit:                           ; preds = %17
  %24 = trunc nuw nsw i64 %indvars.iv to i32
  br label %select.unfold

select.unfold:                                    ; preds = %select.unfold.loopexit, %22
  %.2.ph = phi i32 [ %23, %22 ], [ %24, %select.unfold.loopexit ]
  %25 = tail call noundef i32 @_ZNK6icu_7713UnicodeString11moveIndex32Eii(ptr noundef nonnull align 8 dereferenceable(64) %1, i32 noundef %2, i32 noundef 1)
  %26 = sub nsw i32 %25, %2
  store i32 %26, ptr %3, align 4, !tbaa !12
  br label %27

27:                                               ; preds = %22, %select.unfold, %4
  %.0 = phi i32 [ -1, %4 ], [ %.2.ph, %select.unfold ], [ -1, %22 ]
  ret i32 %.0
}